; Function Attrs: nounwind uwtable
define noalias nonnull ptr @l_Lean_Widget_addDiffTags___lambda__1___boxed(ptr noundef %0, ptr noundef %1, ptr noundef %2, ptr noundef %3, ptr noundef %4, ptr noundef %5, ptr noundef %6, ptr noundef %7) #0 {
  %9 = ptrtoint ptr %0 to i64
  %10 = and i64 %9, 1
  %.not = icmp eq i64 %10, 0
  br i1 %.not, label %11, label %lean_dec.exit20

11:                                               ; preds = %8
  %12 = load i32, ptr %0, align 4, !tbaa !8
  %13 = icmp sgt i32 %12, 1
  br i1 %13, label %14, label %16, !prof !11

14:                                               ; preds = %11
  %15 = add nsw i32 %12, -1
  store i32 %15, ptr %0, align 4, !tbaa !8
  br label %lean_dec.exit20

16:                                               ; preds = %11
  %.not.i = icmp eq i32 %12, 0
  br i1 %.not.i, label %lean_dec.exit20, label %17

17:                                               ; preds = %16
  tail call void @lean_dec_ref_cold(ptr noundef nonnull %0) #7
  br label %lean_dec.exit20

lean_dec.exit20:                                  ; preds = %17, %16, %14, %8
  %18 = ptrtoint ptr %2 to i64
  %19 = lshr i64 %18, 1
  %20 = trunc i64 %19 to i8
  %21 = and i64 %18, 1
  %.not31 = icmp eq i64 %21, 0
  br i1 %.not31, label %22, label %lean_dec.exit19

22:                                               ; preds = %lean_dec.exit20
  %23 = load i32, ptr %2, align 4, !tbaa !8
  %24 = icmp sgt i32 %23, 1
  br i1 %24, label %25, label %27, !prof !11

25:                                               ; preds = %22
  %26 = add nsw i32 %23, -1
  store i32 %26, ptr %2, align 4, !tbaa !8
  br label %lean_dec.exit19

27:                                               ; preds = %22
  %.not.i21 = icmp eq i32 %23, 0
  br i1 %.not.i21, label %lean_dec.exit19, label %28

28:                                               ; preds = %27
  tail call void @lean_dec_ref_cold(ptr noundef nonnull %2) #7
  br label %lean_dec.exit19

lean_dec.exit19:                                  ; preds = %28, %27, %25, %lean_dec.exit20
  %29 = and i64 %9, 510
  %30 = icmp eq i64 %29, 0
  %switch.selectcmp.i.i = icmp eq i8 %20, 1
  %switch.selectcmp10.i.i = icmp eq i8 %20, 0
  %switch.select.i.i = select i1 %switch.selectcmp.i.i, i8 3, i8 5
  %switch.select11.i.i = select i1 %switch.selectcmp10.i.i, i8 1, i8 %switch.select.i.i
  %switch.select13.i.i = select i1 %switch.selectcmp.i.i, i8 2, i8 4
  %switch.select15.i.i = select i1 %switch.selectcmp10.i.i, i8 0, i8 %switch.select13.i.i
  %.0.i.i = select i1 %30, i8 %switch.select11.i.i, i8 %switch.select15.i.i
  %31 = tail call ptr @l_Lean_Widget_SubexprInfo_withDiffTag(i8 noundef zeroext %.0.i.i, ptr noundef %1) #7
  tail call void @lean_inc_heartbeat() #7
  %32 = tail call noalias ptr @mi_malloc_small(i64 noundef 24) #7
  %33 = icmp eq ptr %32, null
  br i1 %33, label %34, label %l_Lean_Widget_addDiffTags___lambda__1.exit

34:                                               ; preds = %lean_dec.exit19
  tail call void @lean_internal_panic_out_of_memory() #8
  unreachable

l_Lean_Widget_addDiffTags___lambda__1.exit:       ; preds = %lean_dec.exit19
  %35 = getelementptr inbounds nuw i8, ptr %32, i64 4
  store i32 1, ptr %32, align 4, !tbaa !8
  store i32 131096, ptr %35, align 4
  %36 = getelementptr inbounds nuw i8, ptr %32, i64 8
  store ptr %31, ptr %36, align 8, !tbaa !4
  %37 = getelementptr inbounds nuw i8, ptr %32, i64 16
  store ptr %7, ptr %37, align 8, !tbaa !4
  %38 = ptrtoint ptr %6 to i64
  %39 = and i64 %38, 1
  %.not32 = icmp eq i64 %39, 0
  br i1 %.not32, label %40, label %lean_dec.exit18

40:                                               ; preds = %l_Lean_Widget_addDiffTags___lambda__1.exit
  %41 = load i32, ptr %6, align 4, !tbaa !8
  %42 = icmp sgt i32 %41, 1
  br i1 %42, label %43, label %45, !prof !11

43:                                               ; preds = %40
  %44 = add nsw i32 %41, -1
  store i32 %44, ptr %6, align 4, !tbaa !8
  br label %lean_dec.exit18

45:                                               ; preds = %40
  %.not.i23 = icmp eq i32 %41, 0
  br i1 %.not.i23, label %lean_dec.exit18, label %46

46:                                               ; preds = %45
  tail call void @lean_dec_ref_cold(ptr noundef nonnull %6) #7
  br label %lean_dec.exit18

lean_dec.exit18:                                  ; preds = %46, %45, %43, %l_Lean_Widget_addDiffTags___lambda__1.exit
  %47 = ptrtoint ptr %5 to i64
  %48 = and i64 %47, 1
  %.not33 = icmp eq i64 %48, 0
  br i1 %.not33, label %49, label %lean_dec.exit17

49:                                               ; preds = %lean_dec.exit18
  %50 = load i32, ptr %5, align 4, !tbaa !8
  %51 = icmp sgt i32 %50, 1
  br i1 %51, label %52, label %54, !prof !11

52:                                               ; preds = %49
  %53 = add nsw i32 %50, -1
  store i32 %53, ptr %5, align 4, !tbaa !8
  br label %lean_dec.exit17

54:                                               ; preds = %49
  %.not.i25 = icmp eq i32 %50, 0
  br i1 %.not.i25, label %lean_dec.exit17, label %55

55:                                               ; preds = %54
  tail call void @lean_dec_ref_cold(ptr noundef nonnull %5) #7
  br label %lean_dec.exit17

lean_dec.exit17:                                  ; preds = %55, %54, %52, %lean_dec.exit18
  %56 = ptrtoint ptr %4 to i64
  %57 = and i64 %56, 1
  %.not34 = icmp eq i64 %57, 0
  br i1 %.not34, label %58, label %lean_dec.exit16

58:                                               ; preds = %lean_dec.exit17
  %59 = load i32, ptr %4, align 4, !tbaa !8
  %60 = icmp sgt i32 %59, 1
  br i1 %60, label %61, label %63, !prof !11

61:                                               ; preds = %58
  %62 = add nsw i32 %59, -1
  store i32 %62, ptr %4, align 4, !tbaa !8
  br label %lean_dec.exit16

63:                                               ; preds = %58
  %.not.i27 = icmp eq i32 %59, 0
  br i1 %.not.i27, label %lean_dec.exit16, label %64

64:                                               ; preds = %63
  tail call void @lean_dec_ref_cold(ptr noundef nonnull %4) #7
  br label %lean_dec.exit16

lean_dec.exit16:                                  ; preds = %64, %63, %61, %lean_dec.exit17
  %65 = ptrtoint ptr %3 to i64
  %66 = and i64 %65, 1
  %.not35 = icmp eq i64 %66, 0
  br i1 %.not35, label %67, label %lean_dec.exit

67:                                               ; preds = %lean_dec.exit16
  %68 = load i32, ptr %3, align 4, !tbaa !8
  %69 = icmp sgt i32 %68, 1
  br i1 %69, label %70, label %72, !prof !11

70:                                               ; preds = %67
  %71 = add nsw i32 %68, -1
  store i32 %71, ptr %3, align 4, !tbaa !8
  br label %lean_dec.exit

72:                                               ; preds = %67
  %.not.i29 = icmp eq i32 %68, 0
  br i1 %.not.i29, label %lean_dec.exit, label %73

73:                                               ; preds = %72
  tail call void @lean_dec_ref_cold(ptr noundef nonnull %3) #7
  br label %lean_dec.exit

lean_dec.exit:                                    ; preds = %73, %72, %70, %lean_dec.exit16
  ret ptr %32
}